; ModuleID = '38/309.c'
source_filename = "38/309.c"
target datalayout = "e-m:e-p270:32:32-p271:32:32-p272:64:64-i64:64-f80:128-n8:16:32:64-S128"
target triple = "x86_64-pc-linux-gnu"

@.str = private unnamed_addr constant [3 x i8] c"%d\00", align 1
@.str.1 = private unnamed_addr constant [4 x i8] c"%lf\00", align 1
@.str.2 = private unnamed_addr constant [7 x i8] c"%.5lf\0A\00", align 1

; Function Attrs: noinline nounwind uwtable
define dso_local i32 @main() #0 {
  %1 = alloca i32, align 4
  %2 = alloca [1200 x double], align 16
  %3 = alloca double, align 8
  %4 = alloca double, align 8
  %5 = alloca double, align 8
  %6 = alloca i32, align 4
  %7 = alloca i32, align 4
  %8 = alloca i32, align 4
  %9 = alloca i32, align 4
  store i32 0, i32* %1, align 4
  %10 = call i32 (i8*, ...) @__isoc99_scanf(i8* getelementptr inbounds ([3 x i8], [3 x i8]* @.str, i64 0, i64 0), i32* %6)
  store i32 0, i32* %8, align 4
  br label %11

11:                                               ; preds = %79, %0
  %12 = load i32, i32* %8, align 4
  %13 = load i32, i32* %6, align 4
  %14 = icmp slt i32 %12, %13
  br i1 %14, label %15, label %82

15:                                               ; preds = %11
  %16 = call i32 (i8*, ...) @__isoc99_scanf(i8* getelementptr inbounds ([3 x i8], [3 x i8]* @.str, i64 0, i64 0), i32* %7)
  store double 0.000000e+00, double* %3, align 8
  store double 0.000000e+00, double* %5, align 8
  store double 0.000000e+00, double* %4, align 8
  store i32 0, i32* %9, align 4
  br label %17

17:                                               ; preds = %32, %15
  %18 = load i32, i32* %9, align 4
  %19 = load i32, i32* %7, align 4
  %20 = icmp slt i32 %18, %19
  br i1 %20, label %21, label %35

21:                                               ; preds = %17
  %22 = load i32, i32* %9, align 4
  %23 = sext i32 %22 to i64
  %24 = getelementptr inbounds [1200 x double], [1200 x double]* %2, i64 0, i64 %23
  %25 = call i32 (i8*, ...) @__isoc99_scanf(i8* getelementptr inbounds ([4 x i8], [4 x i8]* @.str.1, i64 0, i64 0), double* %24)
  %26 = load double, double* %3, align 8
  %27 = load i32, i32* %9, align 4
  %28 = sext i32 %27 to i64
  %29 = getelementptr inbounds [1200 x double], [1200 x double]* %2, i64 0, i64 %28
  %30 = load double, double* %29, align 8
  %31 = fadd double %26, %30
  store double %31, double* %3, align 8
  br label %32

32:                                               ; preds = %21
  %33 = load i32, i32* %9, align 4
  %34 = add nsw i32 %33, 1
  store i32 %34, i32* %9, align 4
  br label %17

35:                                               ; preds = %17
  %36 = load double, double* %3, align 8
  %37 = load i32, i32* %7, align 4
  %38 = sitofp i32 %37 to double
  %39 = fdiv double %36, %38
  store double %39, double* %5, align 8
  store i32 0, i32* %9, align 4
  br label %40

40:                                               ; preds = %67, %35
  %41 = load i32, i32* %9, align 4
  %42 = load i32, i32* %7, align 4
  %43 = icmp slt i32 %41, %42
  br i1 %43, label %44, label %70

44:                                               ; preds = %40
  %45 = load i32, i32* %9, align 4
  %46 = sext i32 %45 to i64
  %47 = getelementptr inbounds [1200 x double], [1200 x double]* %2, i64 0, i64 %46
  %48 = load double, double* %47, align 8
  %49 = load double, double* %5, align 8
  %50 = fsub double %48, %49
  %51 = load i32, i32* %9, align 4
  %52 = sext i32 %51 to i64
  %53 = getelementptr inbounds [1200 x double], [1200 x double]* %2, i64 0, i64 %52
  %54 = load double, double* %53, align 8
  %55 = load double, double* %5, align 8
  %56 = fsub double %54, %55
  %57 = fmul double %50, %56
  %58 = load i32, i32* %9, align 4
  %59 = sext i32 %58 to i64
  %60 = getelementptr inbounds [1200 x double], [1200 x double]* %2, i64 0, i64 %59
  store double %57, double* %60, align 8
  %61 = load double, double* %4, align 8
  %62 = load i32, i32* %9, align 4
  %63 = sext i32 %62 to i64
  %64 = getelementptr inbounds [1200 x double], [1200 x double]* %2, i64 0, i64 %63
  %65 = load double, double* %64, align 8
  %66 = fadd double %61, %65
  store double %66, double* %4, align 8
  br label %67

67:                                               ; preds = %44
  %68 = load i32, i32* %9, align 4
  %69 = add nsw i32 %68, 1
  store i32 %69, i32* %9, align 4
  br label %40

70:                                               ; preds = %40
  %71 = load double, double* %4, align 8
  %72 = load i32, i32* %7, align 4
  %73 = sitofp i32 %72 to double
  %74 = fdiv double %71, %73
  store double %74, double* %4, align 8
  %75 = load double, double* %4, align 8
  %76 = call double @sqrt(double %75) #3
  store double %76, double* %4, align 8
  %77 = load double, double* %4, align 8
  %78 = call i32 (i8*, ...) @printf(i8* getelementptr inbounds ([7 x i8], [7 x i8]* @.str.2, i64 0, i64 0), double %77)
  br label %79

79:                                               ; preds = %70
  %80 = load i32, i32* %8, align 4
  %81 = add nsw i32 %80, 1
  store i32 %81, i32* %8, align 4
  br label %11

82:                                               ; preds = %11
  ret i32 0
}

declare dso_local i32 @__isoc99_scanf(i8*, ...) #1

; Function Attrs: nounwind
declare dso_local double @sqrt(double) #2

declare dso_local i32 @printf(i8*, ...) #1


!llvm.module.flags = !{!0}
!llvm.ident = !{!1}

!0 = !{i32 1, !"wchar_size", i32 4}
!1 = !{!"clang version 10.0.0-4ubuntu1 "}
